(dp0
S'a'
p1
I115
sS'c'
p2
I4
sS'e'
p3
I176
sS'd'
p4
I104
sS'g'
p5
I114
sS'f'
p6
I83
sS'i'
p7
I142
sS'h'
p8
I25
sS'k'
p9
I140
sS'm'
p10
I46
sS'l'
p11
I159
sS'n'
p12
I83
sS'q'
p13
I59
sS'p'
p14
I33
sS's'
p15
I136
sS'r'
p16
I62
sS't'
p17
I129
sS'w'
p18
I15
sS'v'
p19
I103
sS'y'
p20
I52
s.