(dp0
S'a'
p1
I54
sS'c'
p2
I4
sS'e'
p3
I90
sS'd'
p4
I53
sS'g'
p5
I83
sS'f'
p6
I32
sS'i'
p7
I76
sS'h'
p8
I23
sS'k'
p9
I47
sS'm'
p10
I22
sS'l'
p11
I78
sS'n'
p12
I44
sS'q'
p13
I26
sS'p'
p14
I46
sS's'
p15
I53
sS'r'
p16
I60
sS't'
p17
I45
sS'w'
p18
I6
sS'v'
p19
I92
sS'y'
p20
I18
s.