(dp0
S'a'
p1
I90
sS'c'
p2
I17
sS'e'
p3
I98
sS'd'
p4
I71
sS'g'
p5
I97
sS'f'
p6
I40
sS'i'
p7
I91
sS'h'
p8
I35
sS'k'
p9
I76
sS'm'
p10
I14
sS'l'
p11
I103
sS'n'
p12
I55
sS'q'
p13
I41
sS'p'
p14
I44
sS's'
p15
I68
sS'r'
p16
I84
sS't'
p17
I71
sS'w'
p18
I7
sS'v'
p19
I106
sS'y'
p20
I29
s.