(dp0
S'.'
p1
I127388
sS'A'
p2
I191860
sS'C'
p3
I53204
sS'B'
p4
I119
sS'E'
p5
I150959
sS'D'
p6
I138849
sS'G'
p7
I185009
sS'F'
p8
I96729
sS'I'
p9
I138772
sS'H'
p10
I54402
sS'K'
p11
I138318
sS'M'
p12
I51602
sS'L'
p13
I205128
sS'N'
p14
I104272
sS'Q'
p15
I85682
sS'P'
p16
I104261
sS'S'
p17
I147623
sS'R'
p18
I112250
sS'T'
p19
I134776
sS'W'
p20
I31310
sS'V'
p21
I170174
sS'Y'
p22
I82385
sS'X'
p23
I408
sS'Z'
p24
I67
s.