(dp0
S'A'
p1
I1298
sS'C'
p2
I147
sS'E'
p3
I972
sS'D'
p4
I667
sS'G'
p5
I1289
sS'F'
p6
I533
sS'I'
p7
I817
sS'H'
p8
I319
sS'K'
p9
I1044
sS'M'
p10
I322
sS'L'
p11
I1258
sS'N'
p12
I487
sS'Q'
p13
I480
sS'P'
p14
I720
sS'S'
p15
I900
sS'R'
p16
I514
sS'T'
p17
I842
sS'W'
p18
I90
sS'V'
p19
I1414
sS'Y'
p20
I483
sS'X'
p21
I1
s.