(dp0
S'A'
p1
I1813
sS'C'
p2
I153
sS'E'
p3
I1598
sS'D'
p4
I1291
sS'G'
p5
I1611
sS'F'
p6
I735
sS'I'
p7
I1877
sS'H'
p8
I467
sS'K'
p9
I1592
sS'M'
p10
I501
sS'L'
p11
I2270
sS'N'
p12
I796
sS'Q'
p13
I805
sS'P'
p14
I650
sS'S'
p15
I1620
sS'R'
p16
I819
sS'T'
p17
I1233
sS'W'
p18
I109
sS'V'
p19
I1694
sS'Y'
p20
I679
s.