(dp0
S'A'
p1
I2097
sS'C'
p2
I1426
sS'E'
p3
I2348
sS'D'
p4
I1350
sS'G'
p5
I824
sS'F'
p6
I1222
sS'I'
p7
I849
sS'H'
p8
I717
sS'K'
p9
I2067
sS'M'
p10
I408
sS'L'
p11
I2513
sS'N'
p12
I736
sS'Q'
p13
I1056
sS'P'
p14
I1105
sS'S'
p15
I1547
sS'R'
p16
I1012
sS'T'
p17
I1319
sS'W'
p18
I78
sS'V'
p19
I1430
sS'Y'
p20
I742
s.