(dp0
S'A'
p1
I812
sS'C'
p2
I147
sS'E'
p3
I1282
sS'D'
p4
I788
sS'G'
p5
I561
sS'F'
p6
I644
sS'I'
p7
I1587
sS'H'
p8
I504
sS'K'
p9
I1193
sS'M'
p10
I407
sS'L'
p11
I1762
sS'N'
p12
I850
sS'Q'
p13
I815
sS'P'
p14
I401
sS'S'
p15
I947
sS'R'
p16
I677
sS'T'
p17
I785
sS'W'
p18
I64
sS'V'
p19
I935
sS'Y'
p20
I633
s.