(dp0
S'a'
p1
I146
sS'c'
p2
I19
sS'e'
p3
I210
sS'd'
p4
I168
sS'g'
p5
I261
sS'f'
p6
I97
sS'i'
p7
I166
sS'h'
p8
I90
sS'k'
p9
I165
sS'm'
p10
I49
sS'l'
p11
I212
sS'n'
p12
I113
sS'q'
p13
I71
sS'p'
p14
I96
sS's'
p15
I150
sS'r'
p16
I151
sS't'
p17
I154
sS'w'
p18
I26
sS'v'
p19
I239
sS'y'
p20
I109
s.