(dp0
S'A'
p1
I10648
sS'C'
p2
I2608
sS'E'
p3
I9730
sS'D'
p4
I6362
sS'G'
p5
I12604
sS'F'
p6
I4503
sS'I'
p7
I8254
sS'H'
p8
I3162
sS'K'
p9
I8745
sS'M'
p10
I5380
sS'L'
p11
I13741
sS'N'
p12
I5344
sS'Q'
p13
I4296
sS'P'
p14
I6229
sS'S'
p15
I8509
sS'R'
p16
I8806
sS'T'
p17
I10900
sS'W'
p18
I4014
sS'V'
p19
I10823
sS'Y'
p20
I3296
s.